target datalayout = "e-m:e-p270:32:32-p271:32:32-p272:64:64-i64:64-i128:128-f80:128-n8:16:32:64-S128"
target triple = "x86_64-pc-linux-gnu"

; Function Attrs: alwaysinline nounwind willreturn memory(none) uwtable
define internal zeroext i8 @av_clip_uint8_c(i32 noundef %0) #6 {
  %2 = alloca i8, align 1
  %3 = alloca i32, align 4
  store i32 %0, ptr %3, align 4, !tbaa !9
  %4 = load i32, ptr %3, align 4, !tbaa !9
  %5 = and i32 %4, -256
  %6 = icmp ne i32 %5, 0
  br i1 %6, label %7, label %12

7:                                                ; preds = %1
  %8 = load i32, ptr %3, align 4, !tbaa !9
  %9 = xor i32 %8, -1
  %10 = ashr i32 %9, 31
  %11 = trunc i32 %10 to i8
  store i8 %11, ptr %2, align 1
  br label %15

12:                                               ; preds = %1
  %13 = load i32, ptr %3, align 4, !tbaa !9
  %14 = trunc i32 %13 to i8
  store i8 %14, ptr %2, align 1
  br label %15

15:                                               ; preds = %12, %7
  %16 = load i8, ptr %2, align 1
  ret i8 %16
}

; Function Attrs: nounwind uwtable
define internal void @weight_h264_pixels8_8_c(ptr noundef %0, i64 noundef %1, i32 noundef %2, i32 noundef %3, i32 noundef %4, i32 noundef %5) #1 {
  %7 = alloca ptr, align 8
  %8 = alloca i64, align 8
  %9 = alloca i32, align 4
  %10 = alloca i32, align 4
  %11 = alloca i32, align 4
  %12 = alloca i32, align 4
  %13 = alloca i32, align 4
  %14 = alloca ptr, align 8
  store ptr %0, ptr %7, align 8, !tbaa !39
  store i64 %1, ptr %8, align 8, !tbaa !53
  store i32 %2, ptr %9, align 4, !tbaa !9
  store i32 %3, ptr %10, align 4, !tbaa !9
  store i32 %4, ptr %11, align 4, !tbaa !9
  store i32 %5, ptr %12, align 4, !tbaa !9
  call void @llvm.lifetime.start.p0(i64 4, ptr %13) #9
  call void @llvm.lifetime.start.p0(i64 8, ptr %14) #9
  %15 = load ptr, ptr %7, align 8, !tbaa !39
  store ptr %15, ptr %14, align 8, !tbaa !39
  %16 = load i64, ptr %8, align 8, !tbaa !53
  %17 = ashr i64 %16, 0
  store i64 %17, ptr %8, align 8, !tbaa !53
  %18 = load i32, ptr %12, align 4, !tbaa !9
  %19 = load i32, ptr %10, align 4, !tbaa !9
  %20 = add nsw i32 %19, 0
  %21 = shl i32 %18, %20
  store i32 %21, ptr %12, align 4, !tbaa !9
  %22 = load i32, ptr %10, align 4, !tbaa !9
  %23 = icmp ne i32 %22, 0
  br i1 %23, label %24, label %30

24:                                               ; preds = %6
  %25 = load i32, ptr %10, align 4, !tbaa !9
  %26 = sub nsw i32 %25, 1
  %27 = shl i32 1, %26
  %28 = load i32, ptr %12, align 4, !tbaa !9
  %29 = add nsw i32 %28, %27
  store i32 %29, ptr %12, align 4, !tbaa !9
  br label %30

30:                                               ; preds = %24, %6
  store i32 0, ptr %13, align 4, !tbaa !9
  br label %31

31:                                               ; preds = %140, %30
  %32 = load i32, ptr %13, align 4, !tbaa !9
  %33 = load i32, ptr %9, align 4, !tbaa !9
  %34 = icmp slt i32 %32, %33
  br i1 %34, label %35, label %146

35:                                               ; preds = %31
  %36 = load ptr, ptr %14, align 8, !tbaa !39
  %37 = getelementptr inbounds i8, ptr %36, i64 0
  %38 = load i8, ptr %37, align 1, !tbaa !50
  %39 = zext i8 %38 to i32
  %40 = load i32, ptr %11, align 4, !tbaa !9
  %41 = mul nsw i32 %39, %40
  %42 = load i32, ptr %12, align 4, !tbaa !9
  %43 = add nsw i32 %41, %42
  %44 = load i32, ptr %10, align 4, !tbaa !9
  %45 = ashr i32 %43, %44
  %46 = call zeroext i8 @av_clip_uint8_c(i32 noundef %45) #10
  %47 = load ptr, ptr %14, align 8, !tbaa !39
  %48 = getelementptr inbounds i8, ptr %47, i64 0
  store i8 %46, ptr %48, align 1, !tbaa !50
  %49 = load ptr, ptr %14, align 8, !tbaa !39
  %50 = getelementptr inbounds i8, ptr %49, i64 1
  %51 = load i8, ptr %50, align 1, !tbaa !50
  %52 = zext i8 %51 to i32
  %53 = load i32, ptr %11, align 4, !tbaa !9
  %54 = mul nsw i32 %52, %53
  %55 = load i32, ptr %12, align 4, !tbaa !9
  %56 = add nsw i32 %54, %55
  %57 = load i32, ptr %10, align 4, !tbaa !9
  %58 = ashr i32 %56, %57
  %59 = call zeroext i8 @av_clip_uint8_c(i32 noundef %58) #10
  %60 = load ptr, ptr %14, align 8, !tbaa !39
  %61 = getelementptr inbounds i8, ptr %60, i64 1
  store i8 %59, ptr %61, align 1, !tbaa !50
  %62 = load ptr, ptr %14, align 8, !tbaa !39
  %63 = getelementptr inbounds i8, ptr %62, i64 2
  %64 = load i8, ptr %63, align 1, !tbaa !50
  %65 = zext i8 %64 to i32
  %66 = load i32, ptr %11, align 4, !tbaa !9
  %67 = mul nsw i32 %65, %66
  %68 = load i32, ptr %12, align 4, !tbaa !9
  %69 = add nsw i32 %67, %68
  %70 = load i32, ptr %10, align 4, !tbaa !9
  %71 = ashr i32 %69, %70
  %72 = call zeroext i8 @av_clip_uint8_c(i32 noundef %71) #10
  %73 = load ptr, ptr %14, align 8, !tbaa !39
  %74 = getelementptr inbounds i8, ptr %73, i64 2
  store i8 %72, ptr %74, align 1, !tbaa !50
  %75 = load ptr, ptr %14, align 8, !tbaa !39
  %76 = getelementptr inbounds i8, ptr %75, i64 3
  %77 = load i8, ptr %76, align 1, !tbaa !50
  %78 = zext i8 %77 to i32
  %79 = load i32, ptr %11, align 4, !tbaa !9
  %80 = mul nsw i32 %78, %79
  %81 = load i32, ptr %12, align 4, !tbaa !9
  %82 = add nsw i32 %80, %81
  %83 = load i32, ptr %10, align 4, !tbaa !9
  %84 = ashr i32 %82, %83
  %85 = call zeroext i8 @av_clip_uint8_c(i32 noundef %84) #10
  %86 = load ptr, ptr %14, align 8, !tbaa !39
  %87 = getelementptr inbounds i8, ptr %86, i64 3
  store i8 %85, ptr %87, align 1, !tbaa !50
  %88 = load ptr, ptr %14, align 8, !tbaa !39
  %89 = getelementptr inbounds i8, ptr %88, i64 4
  %90 = load i8, ptr %89, align 1, !tbaa !50
  %91 = zext i8 %90 to i32
  %92 = load i32, ptr %11, align 4, !tbaa !9
  %93 = mul nsw i32 %91, %92
  %94 = load i32, ptr %12, align 4, !tbaa !9
  %95 = add nsw i32 %93, %94
  %96 = load i32, ptr %10, align 4, !tbaa !9
  %97 = ashr i32 %95, %96
  %98 = call zeroext i8 @av_clip_uint8_c(i32 noundef %97) #10
  %99 = load ptr, ptr %14, align 8, !tbaa !39
  %100 = getelementptr inbounds i8, ptr %99, i64 4
  store i8 %98, ptr %100, align 1, !tbaa !50
  %101 = load ptr, ptr %14, align 8, !tbaa !39
  %102 = getelementptr inbounds i8, ptr %101, i64 5
  %103 = load i8, ptr %102, align 1, !tbaa !50
  %104 = zext i8 %103 to i32
  %105 = load i32, ptr %11, align 4, !tbaa !9
  %106 = mul nsw i32 %104, %105
  %107 = load i32, ptr %12, align 4, !tbaa !9
  %108 = add nsw i32 %106, %107
  %109 = load i32, ptr %10, align 4, !tbaa !9
  %110 = ashr i32 %108, %109
  %111 = call zeroext i8 @av_clip_uint8_c(i32 noundef %110) #10
  %112 = load ptr, ptr %14, align 8, !tbaa !39
  %113 = getelementptr inbounds i8, ptr %112, i64 5
  store i8 %111, ptr %113, align 1, !tbaa !50
  %114 = load ptr, ptr %14, align 8, !tbaa !39
  %115 = getelementptr inbounds i8, ptr %114, i64 6
  %116 = load i8, ptr %115, align 1, !tbaa !50
  %117 = zext i8 %116 to i32
  %118 = load i32, ptr %11, align 4, !tbaa !9
  %119 = mul nsw i32 %117, %118
  %120 = load i32, ptr %12, align 4, !tbaa !9
  %121 = add nsw i32 %119, %120
  %122 = load i32, ptr %10, align 4, !tbaa !9
  %123 = ashr i32 %121, %122
  %124 = call zeroext i8 @av_clip_uint8_c(i32 noundef %123) #10
  %125 = load ptr, ptr %14, align 8, !tbaa !39
  %126 = getelementptr inbounds i8, ptr %125, i64 6
  store i8 %124, ptr %126, align 1, !tbaa !50
  %127 = load ptr, ptr %14, align 8, !tbaa !39
  %128 = getelementptr inbounds i8, ptr %127, i64 7
  %129 = load i8, ptr %128, align 1, !tbaa !50
  %130 = zext i8 %129 to i32
  %131 = load i32, ptr %11, align 4, !tbaa !9
  %132 = mul nsw i32 %130, %131
  %133 = load i32, ptr %12, align 4, !tbaa !9
  %134 = add nsw i32 %132, %133
  %135 = load i32, ptr %10, align 4, !tbaa !9
  %136 = ashr i32 %134, %135
  %137 = call zeroext i8 @av_clip_uint8_c(i32 noundef %136) #10
  %138 = load ptr, ptr %14, align 8, !tbaa !39
  %139 = getelementptr inbounds i8, ptr %138, i64 7
  store i8 %137, ptr %139, align 1, !tbaa !50
  br label %140

140:                                              ; preds = %35
  %141 = load i32, ptr %13, align 4, !tbaa !9
  %142 = add nsw i32 %141, 1
  store i32 %142, ptr %13, align 4, !tbaa !9
  %143 = load i64, ptr %8, align 8, !tbaa !53
  %144 = load ptr, ptr %14, align 8, !tbaa !39
  %145 = getelementptr inbounds i8, ptr %144, i64 %143
  store ptr %145, ptr %14, align 8, !tbaa !39
  br label %31, !llvm.loop !88

146:                                              ; preds = %31
  call void @llvm.lifetime.end.p0(i64 8, ptr %14) #9
  call void @llvm.lifetime.end.p0(i64 4, ptr %13) #9
  ret void
}