; Function Attrs: nofree norecurse nosync nounwind memory(argmem: readwrite) uwtable
define internal void @weight_h264_pixels8_8_c(ptr noundef captures(none) %0, i64 noundef %1, i32 noundef %2, i32 noundef %3, i32 noundef %4, i32 noundef %5) #1 {
  %7 = shl i32 %5, %3
  %.not = icmp eq i32 %3, 0
  %8 = add nsw i32 %3, -1
  %9 = shl nuw i32 1, %8
  %10 = add nsw i32 %7, %9
  %.052 = select i1 %.not, i32 %5, i32 %10
  %11 = icmp sgt i32 %2, 0
  br i1 %11, label %.lr.ph.lver.check, label %._crit_edge

.lr.ph.lver.check:                                ; preds = %6
  %ident.check.not = icmp eq i64 %1, 1
  br i1 %ident.check.not, label %.lr.ph.ph, label %.lr.ph.lver.orig

.lr.ph.lver.orig:                                 ; preds = %.lr.ph.lver.check, %.lr.ph.lver.orig
  %.076.lver.orig = phi ptr [ %76, %.lr.ph.lver.orig ], [ %0, %.lr.ph.lver.check ]
  %.05175.lver.orig = phi i32 [ %75, %.lr.ph.lver.orig ], [ 0, %.lr.ph.lver.check ]
  %12 = load i8, ptr %.076.lver.orig, align 1, !tbaa !42
  %13 = zext i8 %12 to i32
  %14 = mul nsw i32 %4, %13
  %15 = add nsw i32 %14, %.052
  %16 = ashr i32 %15, %3
  %.not.i.lver.orig = icmp ult i32 %16, 256
  %isnotneg.i.lver.orig = icmp sgt i32 %16, -1
  %17 = sext i1 %isnotneg.i.lver.orig to i8
  %18 = trunc nuw i32 %16 to i8
  %.0.i.lver.orig = select i1 %.not.i.lver.orig, i8 %18, i8 %17
  store i8 %.0.i.lver.orig, ptr %.076.lver.orig, align 1, !tbaa !42
  %19 = getelementptr inbounds nuw i8, ptr %.076.lver.orig, i64 1
  %20 = load i8, ptr %19, align 1, !tbaa !42
  %21 = zext i8 %20 to i32
  %22 = mul nsw i32 %4, %21
  %23 = add nsw i32 %22, %.052
  %24 = ashr i32 %23, %3
  %.not.i54.lver.orig = icmp ult i32 %24, 256
  %isnotneg.i55.lver.orig = icmp sgt i32 %24, -1
  %25 = sext i1 %isnotneg.i55.lver.orig to i8
  %26 = trunc nuw i32 %24 to i8
  %.0.i56.lver.orig = select i1 %.not.i54.lver.orig, i8 %26, i8 %25
  store i8 %.0.i56.lver.orig, ptr %19, align 1, !tbaa !42
  %27 = getelementptr inbounds nuw i8, ptr %.076.lver.orig, i64 2
  %28 = load i8, ptr %27, align 1, !tbaa !42
  %29 = zext i8 %28 to i32
  %30 = mul nsw i32 %4, %29
  %31 = add nsw i32 %30, %.052
  %32 = ashr i32 %31, %3
  %.not.i57.lver.orig = icmp ult i32 %32, 256
  %isnotneg.i58.lver.orig = icmp sgt i32 %32, -1
  %33 = sext i1 %isnotneg.i58.lver.orig to i8
  %34 = trunc nuw i32 %32 to i8
  %.0.i59.lver.orig = select i1 %.not.i57.lver.orig, i8 %34, i8 %33
  store i8 %.0.i59.lver.orig, ptr %27, align 1, !tbaa !42
  %35 = getelementptr inbounds nuw i8, ptr %.076.lver.orig, i64 3
  %36 = load i8, ptr %35, align 1, !tbaa !42
  %37 = zext i8 %36 to i32
  %38 = mul nsw i32 %4, %37
  %39 = add nsw i32 %38, %.052
  %40 = ashr i32 %39, %3
  %.not.i60.lver.orig = icmp ult i32 %40, 256
  %isnotneg.i61.lver.orig = icmp sgt i32 %40, -1
  %41 = sext i1 %isnotneg.i61.lver.orig to i8
  %42 = trunc nuw i32 %40 to i8
  %.0.i62.lver.orig = select i1 %.not.i60.lver.orig, i8 %42, i8 %41
  store i8 %.0.i62.lver.orig, ptr %35, align 1, !tbaa !42
  %43 = getelementptr inbounds nuw i8, ptr %.076.lver.orig, i64 4
  %44 = load i8, ptr %43, align 1, !tbaa !42
  %45 = zext i8 %44 to i32
  %46 = mul nsw i32 %4, %45
  %47 = add nsw i32 %46, %.052
  %48 = ashr i32 %47, %3
  %.not.i63.lver.orig = icmp ult i32 %48, 256
  %isnotneg.i64.lver.orig = icmp sgt i32 %48, -1
  %49 = sext i1 %isnotneg.i64.lver.orig to i8
  %50 = trunc nuw i32 %48 to i8
  %.0.i65.lver.orig = select i1 %.not.i63.lver.orig, i8 %50, i8 %49
  store i8 %.0.i65.lver.orig, ptr %43, align 1, !tbaa !42
  %51 = getelementptr inbounds nuw i8, ptr %.076.lver.orig, i64 5
  %52 = load i8, ptr %51, align 1, !tbaa !42
  %53 = zext i8 %52 to i32
  %54 = mul nsw i32 %4, %53
  %55 = add nsw i32 %54, %.052
  %56 = ashr i32 %55, %3
  %.not.i66.lver.orig = icmp ult i32 %56, 256
  %isnotneg.i67.lver.orig = icmp sgt i32 %56, -1
  %57 = sext i1 %isnotneg.i67.lver.orig to i8
  %58 = trunc nuw i32 %56 to i8
  %.0.i68.lver.orig = select i1 %.not.i66.lver.orig, i8 %58, i8 %57
  store i8 %.0.i68.lver.orig, ptr %51, align 1, !tbaa !42
  %59 = getelementptr inbounds nuw i8, ptr %.076.lver.orig, i64 6
  %60 = load i8, ptr %59, align 1, !tbaa !42
  %61 = zext i8 %60 to i32
  %62 = mul nsw i32 %4, %61
  %63 = add nsw i32 %62, %.052
  %64 = ashr i32 %63, %3
  %.not.i69.lver.orig = icmp ult i32 %64, 256
  %isnotneg.i70.lver.orig = icmp sgt i32 %64, -1
  %65 = sext i1 %isnotneg.i70.lver.orig to i8
  %66 = trunc nuw i32 %64 to i8
  %.0.i71.lver.orig = select i1 %.not.i69.lver.orig, i8 %66, i8 %65
  store i8 %.0.i71.lver.orig, ptr %59, align 1, !tbaa !42
  %67 = getelementptr inbounds nuw i8, ptr %.076.lver.orig, i64 7
  %68 = load i8, ptr %67, align 1, !tbaa !42
  %69 = zext i8 %68 to i32
  %70 = mul nsw i32 %4, %69
  %71 = add nsw i32 %70, %.052
  %72 = ashr i32 %71, %3
  %.not.i72.lver.orig = icmp ult i32 %72, 256
  %isnotneg.i73.lver.orig = icmp sgt i32 %72, -1
  %73 = sext i1 %isnotneg.i73.lver.orig to i8
  %74 = trunc nuw i32 %72 to i8
  %.0.i74.lver.orig = select i1 %.not.i72.lver.orig, i8 %74, i8 %73
  store i8 %.0.i74.lver.orig, ptr %67, align 1, !tbaa !42
  %75 = add nuw nsw i32 %.05175.lver.orig, 1
  %76 = getelementptr inbounds i8, ptr %.076.lver.orig, i64 %1
  %exitcond.not.lver.orig = icmp eq i32 %75, %2
  br i1 %exitcond.not.lver.orig, label %._crit_edge, label %.lr.ph.lver.orig, !llvm.loop !102

.lr.ph.ph:                                        ; preds = %.lr.ph.lver.check
  %scevgep = getelementptr i8, ptr %0, i64 6
  %load_initial = load i8, ptr %scevgep, align 1
  br label %.lr.ph

.lr.ph:                                           ; preds = %.lr.ph.ph, %.lr.ph
  %store_forwarded = phi i8 [ %load_initial, %.lr.ph.ph ], [ %.0.i74, %.lr.ph ]
  %.076 = phi ptr [ %0, %.lr.ph.ph ], [ %140, %.lr.ph ]
  %.05175 = phi i32 [ 0, %.lr.ph.ph ], [ %139, %.lr.ph ]
  %77 = load i8, ptr %.076, align 1, !tbaa !42
  %78 = zext i8 %77 to i32
  %79 = mul nsw i32 %4, %78
  %80 = add nsw i32 %79, %.052
  %81 = ashr i32 %80, %3
  %.not.i = icmp ult i32 %81, 256
  %isnotneg.i = icmp sgt i32 %81, -1
  %82 = sext i1 %isnotneg.i to i8
  %83 = trunc nuw i32 %81 to i8
  %.0.i = select i1 %.not.i, i8 %83, i8 %82
  store i8 %.0.i, ptr %.076, align 1, !tbaa !42
  %84 = getelementptr inbounds nuw i8, ptr %.076, i64 1
  %85 = load i8, ptr %84, align 1, !tbaa !42
  %86 = zext i8 %85 to i32
  %87 = mul nsw i32 %4, %86
  %88 = add nsw i32 %87, %.052
  %89 = ashr i32 %88, %3
  %.not.i54 = icmp ult i32 %89, 256
  %isnotneg.i55 = icmp sgt i32 %89, -1
  %90 = sext i1 %isnotneg.i55 to i8
  %91 = trunc nuw i32 %89 to i8
  %.0.i56 = select i1 %.not.i54, i8 %91, i8 %90
  store i8 %.0.i56, ptr %84, align 1, !tbaa !42
  %92 = getelementptr inbounds nuw i8, ptr %.076, i64 2
  %93 = load i8, ptr %92, align 1, !tbaa !42
  %94 = zext i8 %93 to i32
  %95 = mul nsw i32 %4, %94
  %96 = add nsw i32 %95, %.052
  %97 = ashr i32 %96, %3
  %.not.i57 = icmp ult i32 %97, 256
  %isnotneg.i58 = icmp sgt i32 %97, -1
  %98 = sext i1 %isnotneg.i58 to i8
  %99 = trunc nuw i32 %97 to i8
  %.0.i59 = select i1 %.not.i57, i8 %99, i8 %98
  store i8 %.0.i59, ptr %92, align 1, !tbaa !42
  %100 = getelementptr inbounds nuw i8, ptr %.076, i64 3
  %101 = load i8, ptr %100, align 1, !tbaa !42
  %102 = zext i8 %101 to i32
  %103 = mul nsw i32 %4, %102
  %104 = add nsw i32 %103, %.052
  %105 = ashr i32 %104, %3
  %.not.i60 = icmp ult i32 %105, 256
  %isnotneg.i61 = icmp sgt i32 %105, -1
  %106 = sext i1 %isnotneg.i61 to i8
  %107 = trunc nuw i32 %105 to i8
  %.0.i62 = select i1 %.not.i60, i8 %107, i8 %106
  store i8 %.0.i62, ptr %100, align 1, !tbaa !42
  %108 = getelementptr inbounds nuw i8, ptr %.076, i64 4
  %109 = load i8, ptr %108, align 1, !tbaa !42
  %110 = zext i8 %109 to i32
  %111 = mul nsw i32 %4, %110
  %112 = add nsw i32 %111, %.052
  %113 = ashr i32 %112, %3
  %.not.i63 = icmp ult i32 %113, 256
  %isnotneg.i64 = icmp sgt i32 %113, -1
  %114 = sext i1 %isnotneg.i64 to i8
  %115 = trunc nuw i32 %113 to i8
  %.0.i65 = select i1 %.not.i63, i8 %115, i8 %114
  store i8 %.0.i65, ptr %108, align 1, !tbaa !42
  %116 = getelementptr inbounds nuw i8, ptr %.076, i64 5
  %117 = load i8, ptr %116, align 1, !tbaa !42
  %118 = zext i8 %117 to i32
  %119 = mul nsw i32 %4, %118
  %120 = add nsw i32 %119, %.052
  %121 = ashr i32 %120, %3
  %.not.i66 = icmp ult i32 %121, 256
  %isnotneg.i67 = icmp sgt i32 %121, -1
  %122 = sext i1 %isnotneg.i67 to i8
  %123 = trunc nuw i32 %121 to i8
  %.0.i68 = select i1 %.not.i66, i8 %123, i8 %122
  store i8 %.0.i68, ptr %116, align 1, !tbaa !42
  %124 = getelementptr inbounds nuw i8, ptr %.076, i64 6
  %125 = zext i8 %store_forwarded to i32
  %126 = mul nsw i32 %4, %125
  %127 = add nsw i32 %126, %.052
  %128 = ashr i32 %127, %3
  %.not.i69 = icmp ult i32 %128, 256
  %isnotneg.i70 = icmp sgt i32 %128, -1
  %129 = sext i1 %isnotneg.i70 to i8
  %130 = trunc nuw i32 %128 to i8
  %.0.i71 = select i1 %.not.i69, i8 %130, i8 %129
  store i8 %.0.i71, ptr %124, align 1, !tbaa !42
  %131 = getelementptr inbounds nuw i8, ptr %.076, i64 7
  %132 = load i8, ptr %131, align 1, !tbaa !42
  %133 = zext i8 %132 to i32
  %134 = mul nsw i32 %4, %133
  %135 = add nsw i32 %134, %.052
  %136 = ashr i32 %135, %3
  %.not.i72 = icmp ult i32 %136, 256
  %isnotneg.i73 = icmp sgt i32 %136, -1
  %137 = sext i1 %isnotneg.i73 to i8
  %138 = trunc nuw i32 %136 to i8
  %.0.i74 = select i1 %.not.i72, i8 %138, i8 %137
  store i8 %.0.i74, ptr %131, align 1, !tbaa !42
  %139 = add nuw nsw i32 %.05175, 1
  %140 = getelementptr inbounds nuw i8, ptr %.076, i64 %1
  %exitcond.not = icmp eq i32 %139, %2
  br i1 %exitcond.not, label %._crit_edge, label %.lr.ph, !llvm.loop !102

._crit_edge:                                      ; preds = %.lr.ph.lver.orig, %.lr.ph, %6
  ret void
}